target datalayout = "e-m:e-p270:32:32-p271:32:32-p272:64:64-i64:64-i128:128-f80:128-n8:16:32:64-S128"
target triple = "x86_64-pc-linux-gnu"

%struct.expert_field = type { i32, i32 }

@.str.95 = private unnamed_addr constant [8 x i8] c"Unknown\00", align 1
@hf_gsm_a_bssmap_fi = internal global i32 0, align 4
@hf_gsm_a_bssmap_pi = internal global i32 0, align 4
@hf_gsm_a_bssmap_pt = internal global i32 0, align 4
@hf_gsm_a_bssmap_tf = internal global i32 0, align 4
@hf_gsm_a_bssap_speech_codec = internal global i32 0, align 4
@hf_gsm_a_bssap_extended_codec = internal global i32 0, align 4
@hf_gsm_a_bssap_extended_codec_r2 = internal global i32 0, align 4
@hf_gsm_a_bssap_extended_codec_r3 = internal global i32 0, align 4
@hf_gsm_a_bssmap_fi2 = internal global i32 0, align 4
@hf_gsm_a_bssmap_pi2 = internal global i32 0, align 4
@hf_gsm_a_bssmap_pt2 = internal global i32 0, align 4
@hf_gsm_a_bssmap_tf2 = internal global i32 0, align 4
@hf_gsm_a_bssmap_s0_s15 = internal global i32 0, align 4
@hf_gsm_a_bssmap_s0_s7 = internal global i32 0, align 4
@ei_gsm_a_bssap_unknown_codec = internal global %struct.expert_field zeroinitializer, align 4
@ett_codec_lst = internal global i32 0, align 4
@.str.724 = private unnamed_addr constant [6 x i8] c" - %s\00", align 1
@.str.739 = private unnamed_addr constant [24 x i8] c"Speech Codec Element %u\00", align 1

; Function Attrs: null_pointer_is_valid sspstrong uwtable
define internal zeroext i16 @be_speech_codec(ptr noundef %0, ptr noundef %1, ptr noundef %2, i32 noundef %3, i32 noundef %4, ptr noundef %5, i32 noundef %6) #1 {
  %8 = alloca ptr, align 8
  %9 = alloca ptr, align 8
  %10 = alloca ptr, align 8
  %11 = alloca i32, align 4
  %12 = alloca i32, align 4
  %13 = alloca ptr, align 8
  %14 = alloca i32, align 4
  %15 = alloca i32, align 4
  %16 = alloca i32, align 4
  %17 = alloca i8, align 1
  %18 = alloca i8, align 1
  %19 = alloca ptr, align 8
  %20 = alloca ptr, align 8
  store ptr %0, ptr %8, align 8
  store ptr %1, ptr %9, align 8
  store ptr %2, ptr %10, align 8
  store i32 %3, ptr %11, align 4
  store i32 %4, ptr %12, align 4
  store ptr %5, ptr %13, align 8
  store i32 %6, ptr %14, align 4
  call void @llvm.lifetime.start.p0(i64 4, ptr %15) #5
  call void @llvm.lifetime.start.p0(i64 4, ptr %16) #5
  store i32 0, ptr %16, align 4
  call void @llvm.lifetime.start.p0(i64 1, ptr %17) #5
  call void @llvm.lifetime.start.p0(i64 1, ptr %18) #5
  store i8 0, ptr %18, align 1
  call void @llvm.lifetime.start.p0(i64 8, ptr %19) #5
  store ptr null, ptr %19, align 8
  call void @llvm.lifetime.start.p0(i64 8, ptr %20) #5
  store ptr null, ptr %20, align 8
  %21 = load i32, ptr %11, align 4
  store i32 %21, ptr %15, align 4
  br label %22

22:                                               ; preds = %228, %7
  %23 = load i32, ptr %15, align 4
  %24 = load i32, ptr %11, align 4
  %25 = sub i32 %23, %24
  %26 = load i32, ptr %12, align 4
  %27 = icmp ult i32 %25, %26
  br i1 %27, label %28, label %229

28:                                               ; preds = %22
  %29 = load i8, ptr %18, align 1
  %30 = add i8 %29, 1
  store i8 %30, ptr %18, align 1
  store i32 0, ptr %16, align 4
  %31 = load ptr, ptr %9, align 8
  %32 = load ptr, ptr %8, align 8
  %33 = load i32, ptr %15, align 4
  %34 = load i32, ptr @ett_codec_lst, align 4
  %35 = load i8, ptr %18, align 1
  %36 = zext i8 %35 to i32
  %37 = call ptr (ptr, ptr, i32, i32, i32, ptr, ptr, ...) @proto_tree_add_subtree_format(ptr noundef %31, ptr noundef %32, i32 noundef %33, i32 noundef 1, i32 noundef %34, ptr noundef %19, ptr noundef @.str.739, i32 noundef %36)
  store ptr %37, ptr %20, align 8
  %38 = load ptr, ptr %8, align 8
  %39 = load i32, ptr %15, align 4
  %40 = call zeroext i8 @tvb_get_uint8(ptr noundef %38, i32 noundef %39)
  %41 = zext i8 %40 to i32
  %42 = and i32 %41, 15
  %43 = trunc i32 %42 to i8
  store i8 %43, ptr %17, align 1
  %44 = load i8, ptr %17, align 1
  %45 = zext i8 %44 to i32
  switch i32 %45, label %218 [
    i32 0, label %46
    i32 1, label %46
    i32 2, label %46
    i32 3, label %83
    i32 4, label %83
    i32 11, label %83
    i32 9, label %129
    i32 12, label %129
    i32 13, label %129
    i32 15, label %175
  ]

46:                                               ; preds = %28, %28, %28
  %47 = load ptr, ptr %20, align 8
  %48 = load i32, ptr @hf_gsm_a_bssmap_fi, align 4
  %49 = load ptr, ptr %8, align 8
  %50 = load i32, ptr %15, align 4
  %51 = call ptr @proto_tree_add_item(ptr noundef %47, i32 noundef %48, ptr noundef %49, i32 noundef %50, i32 noundef 1, i32 noundef 0)
  %52 = load ptr, ptr %20, align 8
  %53 = load i32, ptr @hf_gsm_a_bssmap_pi, align 4
  %54 = load ptr, ptr %8, align 8
  %55 = load i32, ptr %15, align 4
  %56 = call ptr @proto_tree_add_item(ptr noundef %52, i32 noundef %53, ptr noundef %54, i32 noundef %55, i32 noundef 1, i32 noundef 0)
  %57 = load ptr, ptr %20, align 8
  %58 = load i32, ptr @hf_gsm_a_bssmap_pt, align 4
  %59 = load ptr, ptr %8, align 8
  %60 = load i32, ptr %15, align 4
  %61 = call ptr @proto_tree_add_item(ptr noundef %57, i32 noundef %58, ptr noundef %59, i32 noundef %60, i32 noundef 1, i32 noundef 0)
  %62 = load ptr, ptr %20, align 8
  %63 = load i32, ptr @hf_gsm_a_bssmap_tf, align 4
  %64 = load ptr, ptr %8, align 8
  %65 = load i32, ptr %15, align 4
  %66 = call ptr @proto_tree_add_item(ptr noundef %62, i32 noundef %63, ptr noundef %64, i32 noundef %65, i32 noundef 1, i32 noundef 0)
  %67 = load ptr, ptr %20, align 8
  %68 = load i32, ptr @hf_gsm_a_bssap_speech_codec, align 4
  %69 = load ptr, ptr %8, align 8
  %70 = load i32, ptr %15, align 4
  %71 = call ptr @proto_tree_add_item(ptr noundef %67, i32 noundef %68, ptr noundef %69, i32 noundef %70, i32 noundef 1, i32 noundef 0)
  %72 = load ptr, ptr %19, align 8
  %73 = load ptr, ptr %8, align 8
  %74 = load i32, ptr %15, align 4
  %75 = call zeroext i8 @tvb_get_uint8(ptr noundef %73, i32 noundef %74)
  %76 = zext i8 %75 to i32
  %77 = and i32 %76, 15
  %78 = call ptr @val_to_str_const(i32 noundef %77, ptr noundef @bssap_speech_codec_values, ptr noundef @.str.95)
  call void (ptr, ptr, ...) @proto_item_append_text(ptr noundef %72, ptr noundef @.str.724, ptr noundef %78)
  %79 = load i32, ptr %15, align 4
  %80 = add i32 %79, 1
  store i32 %80, ptr %15, align 4
  %81 = load i32, ptr %16, align 4
  %82 = add i32 %81, 1
  store i32 %82, ptr %16, align 4
  br label %228

83:                                               ; preds = %28, %28, %28
  %84 = load ptr, ptr %20, align 8
  %85 = load i32, ptr @hf_gsm_a_bssmap_fi2, align 4
  %86 = load ptr, ptr %8, align 8
  %87 = load i32, ptr %15, align 4
  %88 = call ptr @proto_tree_add_item(ptr noundef %84, i32 noundef %85, ptr noundef %86, i32 noundef %87, i32 noundef 1, i32 noundef 0)
  %89 = load ptr, ptr %20, align 8
  %90 = load i32, ptr @hf_gsm_a_bssmap_pi2, align 4
  %91 = load ptr, ptr %8, align 8
  %92 = load i32, ptr %15, align 4
  %93 = call ptr @proto_tree_add_item(ptr noundef %89, i32 noundef %90, ptr noundef %91, i32 noundef %92, i32 noundef 1, i32 noundef 0)
  %94 = load ptr, ptr %20, align 8
  %95 = load i32, ptr @hf_gsm_a_bssmap_pt2, align 4
  %96 = load ptr, ptr %8, align 8
  %97 = load i32, ptr %15, align 4
  %98 = call ptr @proto_tree_add_item(ptr noundef %94, i32 noundef %95, ptr noundef %96, i32 noundef %97, i32 noundef 1, i32 noundef 0)
  %99 = load ptr, ptr %20, align 8
  %100 = load i32, ptr @hf_gsm_a_bssmap_tf2, align 4
  %101 = load ptr, ptr %8, align 8
  %102 = load i32, ptr %15, align 4
  %103 = call ptr @proto_tree_add_item(ptr noundef %99, i32 noundef %100, ptr noundef %101, i32 noundef %102, i32 noundef 1, i32 noundef 0)
  %104 = load ptr, ptr %20, align 8
  %105 = load i32, ptr @hf_gsm_a_bssap_speech_codec, align 4
  %106 = load ptr, ptr %8, align 8
  %107 = load i32, ptr %15, align 4
  %108 = call ptr @proto_tree_add_item(ptr noundef %104, i32 noundef %105, ptr noundef %106, i32 noundef %107, i32 noundef 1, i32 noundef 0)
  %109 = load ptr, ptr %19, align 8
  %110 = load ptr, ptr %8, align 8
  %111 = load i32, ptr %15, align 4
  %112 = call zeroext i8 @tvb_get_uint8(ptr noundef %110, i32 noundef %111)
  %113 = zext i8 %112 to i32
  %114 = and i32 %113, 15
  %115 = call ptr @val_to_str_const(i32 noundef %114, ptr noundef @bssap_speech_codec_values, ptr noundef @.str.95)
  call void (ptr, ptr, ...) @proto_item_append_text(ptr noundef %109, ptr noundef @.str.724, ptr noundef %115)
  %116 = load i32, ptr %15, align 4
  %117 = add i32 %116, 1
  store i32 %117, ptr %15, align 4
  %118 = load i32, ptr %16, align 4
  %119 = add i32 %118, 1
  store i32 %119, ptr %16, align 4
  %120 = load ptr, ptr %20, align 8
  %121 = load i32, ptr @hf_gsm_a_bssmap_s0_s15, align 4
  %122 = load ptr, ptr %8, align 8
  %123 = load i32, ptr %15, align 4
  %124 = call ptr @proto_tree_add_item(ptr noundef %120, i32 noundef %121, ptr noundef %122, i32 noundef %123, i32 noundef 2, i32 noundef 0)
  %125 = load i32, ptr %15, align 4
  %126 = add i32 %125, 2
  store i32 %126, ptr %15, align 4
  %127 = load i32, ptr %16, align 4
  %128 = add i32 %127, 2
  store i32 %128, ptr %16, align 4
  br label %228

129:                                              ; preds = %28, %28, %28
  %130 = load ptr, ptr %20, align 8
  %131 = load i32, ptr @hf_gsm_a_bssmap_fi2, align 4
  %132 = load ptr, ptr %8, align 8
  %133 = load i32, ptr %15, align 4
  %134 = call ptr @proto_tree_add_item(ptr noundef %130, i32 noundef %131, ptr noundef %132, i32 noundef %133, i32 noundef 1, i32 noundef 0)
  %135 = load ptr, ptr %20, align 8
  %136 = load i32, ptr @hf_gsm_a_bssmap_pi2, align 4
  %137 = load ptr, ptr %8, align 8
  %138 = load i32, ptr %15, align 4
  %139 = call ptr @proto_tree_add_item(ptr noundef %135, i32 noundef %136, ptr noundef %137, i32 noundef %138, i32 noundef 1, i32 noundef 0)
  %140 = load ptr, ptr %20, align 8
  %141 = load i32, ptr @hf_gsm_a_bssmap_pt2, align 4
  %142 = load ptr, ptr %8, align 8
  %143 = load i32, ptr %15, align 4
  %144 = call ptr @proto_tree_add_item(ptr noundef %140, i32 noundef %141, ptr noundef %142, i32 noundef %143, i32 noundef 1, i32 noundef 0)
  %145 = load ptr, ptr %20, align 8
  %146 = load i32, ptr @hf_gsm_a_bssmap_tf2, align 4
  %147 = load ptr, ptr %8, align 8
  %148 = load i32, ptr %15, align 4
  %149 = call ptr @proto_tree_add_item(ptr noundef %145, i32 noundef %146, ptr noundef %147, i32 noundef %148, i32 noundef 1, i32 noundef 0)
  %150 = load ptr, ptr %20, align 8
  %151 = load i32, ptr @hf_gsm_a_bssap_speech_codec, align 4
  %152 = load ptr, ptr %8, align 8
  %153 = load i32, ptr %15, align 4
  %154 = call ptr @proto_tree_add_item(ptr noundef %150, i32 noundef %151, ptr noundef %152, i32 noundef %153, i32 noundef 1, i32 noundef 0)
  %155 = load ptr, ptr %19, align 8
  %156 = load ptr, ptr %8, align 8
  %157 = load i32, ptr %15, align 4
  %158 = call zeroext i8 @tvb_get_uint8(ptr noundef %156, i32 noundef %157)
  %159 = zext i8 %158 to i32
  %160 = and i32 %159, 15
  %161 = call ptr @val_to_str_const(i32 noundef %160, ptr noundef @bssap_speech_codec_values, ptr noundef @.str.95)
  call void (ptr, ptr, ...) @proto_item_append_text(ptr noundef %155, ptr noundef @.str.724, ptr noundef %161)
  %162 = load i32, ptr %15, align 4
  %163 = add i32 %162, 1
  store i32 %163, ptr %15, align 4
  %164 = load i32, ptr %16, align 4
  %165 = add i32 %164, 1
  store i32 %165, ptr %16, align 4
  %166 = load ptr, ptr %20, align 8
  %167 = load i32, ptr @hf_gsm_a_bssmap_s0_s7, align 4
  %168 = load ptr, ptr %8, align 8
  %169 = load i32, ptr %15, align 4
  %170 = call ptr @proto_tree_add_item(ptr noundef %166, i32 noundef %167, ptr noundef %168, i32 noundef %169, i32 noundef 1, i32 noundef 0)
  %171 = load i32, ptr %15, align 4
  %172 = add i32 %171, 1
  store i32 %172, ptr %15, align 4
  %173 = load i32, ptr %16, align 4
  %174 = add i32 %173, 1
  store i32 %174, ptr %16, align 4
  br label %228

175:                                              ; preds = %28
  %176 = load ptr, ptr %20, align 8
  %177 = load i32, ptr @hf_gsm_a_bssmap_pi, align 4
  %178 = load ptr, ptr %8, align 8
  %179 = load i32, ptr %15, align 4
  %180 = call ptr @proto_tree_add_item(ptr noundef %176, i32 noundef %177, ptr noundef %178, i32 noundef %179, i32 noundef 1, i32 noundef 0)
  %181 = load ptr, ptr %20, align 8
  %182 = load i32, ptr @hf_gsm_a_bssmap_pt, align 4
  %183 = load ptr, ptr %8, align 8
  %184 = load i32, ptr %15, align 4
  %185 = call ptr @proto_tree_add_item(ptr noundef %181, i32 noundef %182, ptr noundef %183, i32 noundef %184, i32 noundef 1, i32 noundef 0)
  %186 = load ptr, ptr %20, align 8
  %187 = load i32, ptr @hf_gsm_a_bssap_speech_codec, align 4
  %188 = load ptr, ptr %8, align 8
  %189 = load i32, ptr %15, align 4
  %190 = call ptr @proto_tree_add_item(ptr noundef %186, i32 noundef %187, ptr noundef %188, i32 noundef %189, i32 noundef 1, i32 noundef 0)
  %191 = load i32, ptr %15, align 4
  %192 = add i32 %191, 1
  store i32 %192, ptr %15, align 4
  %193 = load i32, ptr %16, align 4
  %194 = add i32 %193, 1
  store i32 %194, ptr %16, align 4
  %195 = load ptr, ptr %20, align 8
  %196 = load i32, ptr @hf_gsm_a_bssap_extended_codec, align 4
  %197 = load ptr, ptr %8, align 8
  %198 = load i32, ptr %15, align 4
  %199 = call ptr @proto_tree_add_item(ptr noundef %195, i32 noundef %196, ptr noundef %197, i32 noundef %198, i32 noundef 1, i32 noundef 0)
  %200 = load i32, ptr %15, align 4
  %201 = add i32 %200, 1
  store i32 %201, ptr %15, align 4
  %202 = load i32, ptr %16, align 4
  %203 = add i32 %202, 1
  store i32 %203, ptr %16, align 4
  %204 = load ptr, ptr %20, align 8
  %205 = load i32, ptr @hf_gsm_a_bssap_extended_codec_r2, align 4
  %206 = load ptr, ptr %8, align 8
  %207 = load i32, ptr %15, align 4
  %208 = call ptr @proto_tree_add_item(ptr noundef %204, i32 noundef %205, ptr noundef %206, i32 noundef %207, i32 noundef 1, i32 noundef 0)
  %209 = load ptr, ptr %20, align 8
  %210 = load i32, ptr @hf_gsm_a_bssap_extended_codec_r3, align 4
  %211 = load ptr, ptr %8, align 8
  %212 = load i32, ptr %15, align 4
  %213 = call ptr @proto_tree_add_item(ptr noundef %209, i32 noundef %210, ptr noundef %211, i32 noundef %212, i32 noundef 1, i32 noundef 0)
  %214 = load i32, ptr %15, align 4
  %215 = add i32 %214, 1
  store i32 %215, ptr %15, align 4
  %216 = load i32, ptr %16, align 4
  %217 = add i32 %216, 1
  store i32 %217, ptr %16, align 4
  br label %228

218:                                              ; preds = %28
  %219 = load ptr, ptr %20, align 8
  %220 = load ptr, ptr %10, align 8
  %221 = load ptr, ptr %8, align 8
  %222 = load i32, ptr %15, align 4
  %223 = call ptr @proto_tree_add_expert(ptr noundef %219, ptr noundef %220, ptr noundef @ei_gsm_a_bssap_unknown_codec, ptr noundef %221, i32 noundef %222, i32 noundef 2)
  %224 = load i32, ptr %15, align 4
  %225 = add i32 %224, 2
  store i32 %225, ptr %15, align 4
  %226 = load i32, ptr %16, align 4
  %227 = add i32 %226, 2
  store i32 %227, ptr %16, align 4
  br label %228

228:                                              ; preds = %218, %175, %129, %83, %46
  br label %22, !llvm.loop !17

229:                                              ; preds = %22
  %230 = load ptr, ptr %19, align 8
  %231 = load i32, ptr %16, align 4
  call void @proto_item_set_len(ptr noundef %230, i32 noundef %231)
  %232 = load i32, ptr %12, align 4
  %233 = trunc i32 %232 to i16
  call void @llvm.lifetime.end.p0(i64 8, ptr %20) #5
  call void @llvm.lifetime.end.p0(i64 8, ptr %19) #5
  call void @llvm.lifetime.end.p0(i64 1, ptr %18) #5
  call void @llvm.lifetime.end.p0(i64 1, ptr %17) #5
  call void @llvm.lifetime.end.p0(i64 4, ptr %16) #5
  call void @llvm.lifetime.end.p0(i64 4, ptr %15) #5
  ret i16 %233
}