; Function Attrs: null_pointer_is_valid sspstrong uwtable
define internal noundef zeroext i16 @be_speech_codec(ptr noundef %0, ptr noundef %1, ptr noundef %2, i32 noundef %3, i32 noundef %4, ptr readnone captures(none) %5, i32 %6) #1 {
  %8 = alloca ptr, align 8
  call void @llvm.lifetime.start.p0(i64 8, ptr nonnull %8) #4
  store ptr null, ptr %8, align 8
  %.not = icmp eq i32 %4, 0
  br i1 %.not, label %._crit_edge, label %.lr.ph

.lr.ph:                                           ; preds = %7, %86
  %.0115 = phi i8 [ %9, %86 ], [ 0, %7 ]
  %.0110114 = phi i32 [ %87, %86 ], [ %3, %7 ]
  %9 = add i8 %.0115, 1
  %10 = load i32, ptr @ett_codec_lst, align 4
  %11 = zext i8 %9 to i32
  %12 = call ptr (ptr, ptr, i32, i32, i32, ptr, ptr, ...) @proto_tree_add_subtree_format(ptr noundef %1, ptr noundef %0, i32 noundef %.0110114, i32 noundef 1, i32 noundef %10, ptr noundef nonnull %8, ptr noundef nonnull @.str.739, i32 noundef %11)
  %13 = call zeroext i8 @tvb_get_uint8(ptr noundef %0, i32 noundef %.0110114)
  %14 = and i8 %13, 15
  switch i8 %14, label %84 [
    i8 0, label %15
    i8 1, label %15
    i8 2, label %15
    i8 3, label %31
    i8 4, label %31
    i8 11, label %31
    i8 9, label %50
    i8 12, label %50
    i8 13, label %50
    i8 15, label %69
  ]

15:                                               ; preds = %.lr.ph, %.lr.ph, %.lr.ph
  %16 = load i32, ptr @hf_gsm_a_bssmap_fi, align 4
  %17 = call ptr @proto_tree_add_item(ptr noundef %12, i32 noundef %16, ptr noundef %0, i32 noundef %.0110114, i32 noundef 1, i32 noundef 0)
  %18 = load i32, ptr @hf_gsm_a_bssmap_pi, align 4
  %19 = call ptr @proto_tree_add_item(ptr noundef %12, i32 noundef %18, ptr noundef %0, i32 noundef %.0110114, i32 noundef 1, i32 noundef 0)
  %20 = load i32, ptr @hf_gsm_a_bssmap_pt, align 4
  %21 = call ptr @proto_tree_add_item(ptr noundef %12, i32 noundef %20, ptr noundef %0, i32 noundef %.0110114, i32 noundef 1, i32 noundef 0)
  %22 = load i32, ptr @hf_gsm_a_bssmap_tf, align 4
  %23 = call ptr @proto_tree_add_item(ptr noundef %12, i32 noundef %22, ptr noundef %0, i32 noundef %.0110114, i32 noundef 1, i32 noundef 0)
  %24 = load i32, ptr @hf_gsm_a_bssap_speech_codec, align 4
  %25 = call ptr @proto_tree_add_item(ptr noundef %12, i32 noundef %24, ptr noundef %0, i32 noundef %.0110114, i32 noundef 1, i32 noundef 0)
  %26 = load ptr, ptr %8, align 8
  %27 = call zeroext i8 @tvb_get_uint8(ptr noundef %0, i32 noundef %.0110114)
  %28 = and i8 %27, 15
  %29 = zext nneg i8 %28 to i32
  %30 = call ptr @val_to_str_const(i32 noundef %29, ptr noundef nonnull @bssap_speech_codec_values, ptr noundef nonnull @.str.95)
  call void (ptr, ptr, ...) @proto_item_append_text(ptr noundef %26, ptr noundef nonnull @.str.724, ptr noundef %30)
  br label %86

31:                                               ; preds = %.lr.ph, %.lr.ph, %.lr.ph
  %32 = load i32, ptr @hf_gsm_a_bssmap_fi2, align 4
  %33 = call ptr @proto_tree_add_item(ptr noundef %12, i32 noundef %32, ptr noundef %0, i32 noundef %.0110114, i32 noundef 1, i32 noundef 0)
  %34 = load i32, ptr @hf_gsm_a_bssmap_pi2, align 4
  %35 = call ptr @proto_tree_add_item(ptr noundef %12, i32 noundef %34, ptr noundef %0, i32 noundef %.0110114, i32 noundef 1, i32 noundef 0)
  %36 = load i32, ptr @hf_gsm_a_bssmap_pt2, align 4
  %37 = call ptr @proto_tree_add_item(ptr noundef %12, i32 noundef %36, ptr noundef %0, i32 noundef %.0110114, i32 noundef 1, i32 noundef 0)
  %38 = load i32, ptr @hf_gsm_a_bssmap_tf2, align 4
  %39 = call ptr @proto_tree_add_item(ptr noundef %12, i32 noundef %38, ptr noundef %0, i32 noundef %.0110114, i32 noundef 1, i32 noundef 0)
  %40 = load i32, ptr @hf_gsm_a_bssap_speech_codec, align 4
  %41 = call ptr @proto_tree_add_item(ptr noundef %12, i32 noundef %40, ptr noundef %0, i32 noundef %.0110114, i32 noundef 1, i32 noundef 0)
  %42 = load ptr, ptr %8, align 8
  %43 = call zeroext i8 @tvb_get_uint8(ptr noundef %0, i32 noundef %.0110114)
  %44 = and i8 %43, 15
  %45 = zext nneg i8 %44 to i32
  %46 = call ptr @val_to_str_const(i32 noundef %45, ptr noundef nonnull @bssap_speech_codec_values, ptr noundef nonnull @.str.95)
  call void (ptr, ptr, ...) @proto_item_append_text(ptr noundef %42, ptr noundef nonnull @.str.724, ptr noundef %46)
  %47 = add i32 %.0110114, 1
  %48 = load i32, ptr @hf_gsm_a_bssmap_s0_s15, align 4
  %49 = call ptr @proto_tree_add_item(ptr noundef %12, i32 noundef %48, ptr noundef %0, i32 noundef %47, i32 noundef 2, i32 noundef 0)
  br label %86

50:                                               ; preds = %.lr.ph, %.lr.ph, %.lr.ph
  %51 = load i32, ptr @hf_gsm_a_bssmap_fi2, align 4
  %52 = call ptr @proto_tree_add_item(ptr noundef %12, i32 noundef %51, ptr noundef %0, i32 noundef %.0110114, i32 noundef 1, i32 noundef 0)
  %53 = load i32, ptr @hf_gsm_a_bssmap_pi2, align 4
  %54 = call ptr @proto_tree_add_item(ptr noundef %12, i32 noundef %53, ptr noundef %0, i32 noundef %.0110114, i32 noundef 1, i32 noundef 0)
  %55 = load i32, ptr @hf_gsm_a_bssmap_pt2, align 4
  %56 = call ptr @proto_tree_add_item(ptr noundef %12, i32 noundef %55, ptr noundef %0, i32 noundef %.0110114, i32 noundef 1, i32 noundef 0)
  %57 = load i32, ptr @hf_gsm_a_bssmap_tf2, align 4
  %58 = call ptr @proto_tree_add_item(ptr noundef %12, i32 noundef %57, ptr noundef %0, i32 noundef %.0110114, i32 noundef 1, i32 noundef 0)
  %59 = load i32, ptr @hf_gsm_a_bssap_speech_codec, align 4
  %60 = call ptr @proto_tree_add_item(ptr noundef %12, i32 noundef %59, ptr noundef %0, i32 noundef %.0110114, i32 noundef 1, i32 noundef 0)
  %61 = load ptr, ptr %8, align 8
  %62 = call zeroext i8 @tvb_get_uint8(ptr noundef %0, i32 noundef %.0110114)
  %63 = and i8 %62, 15
  %64 = zext nneg i8 %63 to i32
  %65 = call ptr @val_to_str_const(i32 noundef %64, ptr noundef nonnull @bssap_speech_codec_values, ptr noundef nonnull @.str.95)
  call void (ptr, ptr, ...) @proto_item_append_text(ptr noundef %61, ptr noundef nonnull @.str.724, ptr noundef %65)
  %66 = add i32 %.0110114, 1
  %67 = load i32, ptr @hf_gsm_a_bssmap_s0_s7, align 4
  %68 = call ptr @proto_tree_add_item(ptr noundef %12, i32 noundef %67, ptr noundef %0, i32 noundef %66, i32 noundef 1, i32 noundef 0)
  br label %86

69:                                               ; preds = %.lr.ph
  %70 = load i32, ptr @hf_gsm_a_bssmap_pi, align 4
  %71 = call ptr @proto_tree_add_item(ptr noundef %12, i32 noundef %70, ptr noundef %0, i32 noundef %.0110114, i32 noundef 1, i32 noundef 0)
  %72 = load i32, ptr @hf_gsm_a_bssmap_pt, align 4
  %73 = call ptr @proto_tree_add_item(ptr noundef %12, i32 noundef %72, ptr noundef %0, i32 noundef %.0110114, i32 noundef 1, i32 noundef 0)
  %74 = load i32, ptr @hf_gsm_a_bssap_speech_codec, align 4
  %75 = call ptr @proto_tree_add_item(ptr noundef %12, i32 noundef %74, ptr noundef %0, i32 noundef %.0110114, i32 noundef 1, i32 noundef 0)
  %76 = add i32 %.0110114, 1
  %77 = load i32, ptr @hf_gsm_a_bssap_extended_codec, align 4
  %78 = call ptr @proto_tree_add_item(ptr noundef %12, i32 noundef %77, ptr noundef %0, i32 noundef %76, i32 noundef 1, i32 noundef 0)
  %79 = add i32 %.0110114, 2
  %80 = load i32, ptr @hf_gsm_a_bssap_extended_codec_r2, align 4
  %81 = call ptr @proto_tree_add_item(ptr noundef %12, i32 noundef %80, ptr noundef %0, i32 noundef %79, i32 noundef 1, i32 noundef 0)
  %82 = load i32, ptr @hf_gsm_a_bssap_extended_codec_r3, align 4
  %83 = call ptr @proto_tree_add_item(ptr noundef %12, i32 noundef %82, ptr noundef %0, i32 noundef %79, i32 noundef 1, i32 noundef 0)
  br label %86

84:                                               ; preds = %.lr.ph
  %85 = call ptr @proto_tree_add_expert(ptr noundef %12, ptr noundef %2, ptr noundef nonnull @ei_gsm_a_bssap_unknown_codec, ptr noundef %0, i32 noundef %.0110114, i32 noundef 2)
  br label %86

86:                                               ; preds = %84, %69, %50, %31, %15
  %.sink = phi i32 [ 2, %84 ], [ 3, %69 ], [ 2, %50 ], [ 3, %31 ], [ 1, %15 ]
  %87 = add i32 %.0110114, %.sink
  %88 = sub i32 %87, %3
  %89 = icmp ult i32 %88, %4
  br i1 %89, label %.lr.ph, label %._crit_edge.loopexit, !llvm.loop !15

._crit_edge.loopexit:                             ; preds = %86
  %.pre = load ptr, ptr %8, align 8
  br label %._crit_edge

._crit_edge:                                      ; preds = %._crit_edge.loopexit, %7
  %90 = phi ptr [ null, %7 ], [ %.pre, %._crit_edge.loopexit ]
  %.0111.lcssa = phi i32 [ 0, %7 ], [ %.sink, %._crit_edge.loopexit ]
  call void @proto_item_set_len(ptr noundef %90, i32 noundef %.0111.lcssa)
  %91 = trunc i32 %4 to i16
  call void @llvm.lifetime.end.p0(i64 8, ptr nonnull %8) #4
  ret i16 %91
}